; Listing generated by Microsoft (R) Optimizing Compiler Version 19.16.27031.1 

	TITLE	C:\Users\Dell.000\Source\Repos\AKO_gr7_cw_2024\AKO_gr7_cw_2024\program.c
	.686P
	.XMM
	include listing.inc
	.model	flat

INCLUDELIB MSVCRTD
INCLUDELIB OLDNAMES

_DATA	SEGMENT
COMM	_a:DWORD
_DATA	ENDS
msvcjmc	SEGMENT
__AD7FA156_corecrt_stdio_config@h DB 01H
__5AADA064_corecrt_wstdio@h DB 01H
__829D7DF6_stdio@h DB 01H
__5DB52FC8_ctype@h DB 01H
__E3DDABCB_basetsd@h DB 01H
__DEA533ED_corecrt_memcpy_s@h DB 01H
__BDB739A4_corecrt_wstring@h DB 01H
__A36EFB11_string@h DB 01H
__EDB2904A_winnt@h DB 01H
__6C215DCE_processthreadsapi@h DB 01H
__B9ACCDBD_memoryapi@h DB 01H
__2D60914C_winerror@h DB 01H
__5C8AA59A_winbase@h DB 01H
__369A3A4A_winioctl@h DB 01H
__583B23E4_stralign@h DB 01H
__9F8B86FF_program@c DB 01H
msvcjmc	ENDS
PUBLIC	_main
PUBLIC	__JustMyCode_Default
PUBLIC	??_C@_1BA@GACPAOCE@?$AAP?$AAy?$AAt?$AAa?$AAn?$AAi?$AAe@ ; `string'
PUBLIC	??_C@_1CA@OMDPEIEC@?$AAC?$AAz?$AAy?$AA?5?$AAl?$AAu?$AAb?$AAi?$AAs?$AAz?$AA?5?$AAA?$AAK?$AAO?$AA?$DP@ ; `string'
EXTRN	__imp__MessageBoxW@16:PROC
EXTRN	@__CheckForDebuggerJustMyCode@4:PROC
EXTRN	__RTC_CheckEsp:PROC
EXTRN	__RTC_InitBase:PROC
EXTRN	__RTC_Shutdown:PROC
;	COMDAT rtc$TMZ
rtc$TMZ	SEGMENT
__RTC_Shutdown.rtc$TMZ DD FLAT:__RTC_Shutdown
rtc$TMZ	ENDS
;	COMDAT rtc$IMZ
rtc$IMZ	SEGMENT
__RTC_InitBase.rtc$IMZ DD FLAT:__RTC_InitBase
rtc$IMZ	ENDS
;	COMDAT ??_C@_1CA@OMDPEIEC@?$AAC?$AAz?$AAy?$AA?5?$AAl?$AAu?$AAb?$AAi?$AAs?$AAz?$AA?5?$AAA?$AAK?$AAO?$AA?$DP@
CONST	SEGMENT
??_C@_1CA@OMDPEIEC@?$AAC?$AAz?$AAy?$AA?5?$AAl?$AAu?$AAb?$AAi?$AAs?$AAz?$AA?5?$AAA?$AAK?$AAO?$AA?$DP@ DB 'C'
	DB	00H, 'z', 00H, 'y', 00H, ' ', 00H, 'l', 00H, 'u', 00H, 'b', 00H
	DB	'i', 00H, 's', 00H, 'z', 00H, ' ', 00H, 'A', 00H, 'K', 00H, 'O'
	DB	00H, '?', 00H, 00H, 00H			; `string'
CONST	ENDS
;	COMDAT ??_C@_1BA@GACPAOCE@?$AAP?$AAy?$AAt?$AAa?$AAn?$AAi?$AAe@
CONST	SEGMENT
??_C@_1BA@GACPAOCE@?$AAP?$AAy?$AAt?$AAa?$AAn?$AAi?$AAe@ DB 'P', 00H, 'y', 00H
	DB	't', 00H, 'a', 00H, 'n', 00H, 'i', 00H, 'e', 00H, 00H, 00H ; `string'
CONST	ENDS
; Function compile flags: /Odt
;	COMDAT __JustMyCode_Default
_TEXT	SEGMENT
__JustMyCode_Default PROC				; COMDAT
  00000	55		 push	 ebp
  00001	8b ec		 mov	 ebp, esp
  00003	5d		 pop	 ebp
  00004	c3		 ret	 0
__JustMyCode_Default ENDP
_TEXT	ENDS
; Function compile flags: /Odtp /RTCsu /ZI
; File c:\users\dell.000\source\repos\ako_gr7_cw_2024\ako_gr7_cw_2024\program.c
;	COMDAT _main
_TEXT	SEGMENT
_main	PROC						; COMDAT
	
; 9    : {

  00000	55		 push	 ebp
  00001	8b ec		 mov	 ebp, esp
  00003	81 ec c0 00 00
	00		 sub	 esp, 192		; 000000c0H
  00009	53		 push	 ebx
  0000a	56		 push	 esi
  0000b	57		 push	 edi
  0000c	8d bd 40 ff ff
	ff		 lea	 edi, DWORD PTR [ebp-192]
  00012	b9 30 00 00 00	 mov	 ecx, 48			; 00000030H
  00017	b8 cc cc cc cc	 mov	 eax, -858993460		; ccccccccH
  0001c	f3 ab		 rep stosd
  0001e	b9 00 00 00 00	 mov	 ecx, OFFSET __9F8B86FF_program@c
  00023	e8 00 00 00 00	 call	 @__CheckForDebuggerJustMyCode@4

; 10   : 	a = MessageBox(NULL, L"Czy lubisz AKO?", L"Pytanie", MB_YESNO);

  00028	8b f4		 mov	 esi, esp
  0002a	6a 04		 push	 4
  0002c	68 00 00 00 00	 push	 OFFSET ??_C@_1BA@GACPAOCE@?$AAP?$AAy?$AAt?$AAa?$AAn?$AAi?$AAe@
  00031	68 00 00 00 00	 push	 OFFSET ??_C@_1CA@OMDPEIEC@?$AAC?$AAz?$AAy?$AA?5?$AAl?$AAu?$AAb?$AAi?$AAs?$AAz?$AA?5?$AAA?$AAK?$AAO?$AA?$DP@
  00036	6a 00		 push	 0
  00038	ff 15 00 00 00
	00		 call	 DWORD PTR __imp__MessageBoxW@16
  0003e	3b f4		 cmp	 esi, esp
  00040	e8 00 00 00 00	 call	 __RTC_CheckEsp
  00045	a3 00 00 00 00	 mov	 DWORD PTR _a, eax

; 11   : }

  0004a	33 c0		 xor	 eax, eax
  0004c	5f		 pop	 edi
  0004d	5e		 pop	 esi
  0004e	5b		 pop	 ebx
  0004f	81 c4 c0 00 00
	00		 add	 esp, 192		; 000000c0H
  00055	3b ec		 cmp	 ebp, esp
  00057	e8 00 00 00 00	 call	 __RTC_CheckEsp
  0005c	8b e5		 mov	 esp, ebp
  0005e	5d		 pop	 ebp
  0005f	c3		 ret	 0
_main	ENDP
_TEXT	ENDS
END
