; Listing generated by Microsoft (R) Optimizing Compiler Version 19.41.34120.0 

	TITLE	C:\Users\Bartek\Desktop\assembler\AKO_gr7_cw4_2024\AKO_gr7_cw_2024\Debug\program.obj
	.686P
	.XMM
	include listing.inc
	.model	flat

INCLUDELIB MSVCRTD
INCLUDELIB OLDNAMES

msvcjmc	SEGMENT
__68D132EB_concurrencysal@h DB 01H
__4DC47379_sal@h DB 01H
__B6ADDB23_vadefs@h DB 01H
__A2A1025A_vcruntime@h DB 01H
__1B0272D9_corecrt@h DB 01H
__44420885_corecrt_stdio_config@h DB 01H
__AB601D8D_corecrt_wstdio@h DB 01H
__C1EC35D3_stdio@h DB 01H
__4935C687_program@c DB 01H
msvcjmc	ENDS
PUBLIC	_main
PUBLIC	__JustMyCode_Default
EXTRN	_wyswietl_EAX:PROC
EXTRN	@__CheckForDebuggerJustMyCode@4:PROC
EXTRN	__RTC_CheckEsp:PROC
EXTRN	__RTC_InitBase:PROC
EXTRN	__RTC_Shutdown:PROC
;	COMDAT rtc$TMZ
rtc$TMZ	SEGMENT
__RTC_Shutdown.rtc$TMZ DD FLAT:__RTC_Shutdown
rtc$TMZ	ENDS
;	COMDAT rtc$IMZ
rtc$IMZ	SEGMENT
__RTC_InitBase.rtc$IMZ DD FLAT:__RTC_InitBase
rtc$IMZ	ENDS
; Function compile flags: /Odt
;	COMDAT __JustMyCode_Default
_TEXT	SEGMENT
__JustMyCode_Default PROC				; COMDAT
  00000	55		 push	 ebp
  00001	8b ec		 mov	 ebp, esp
  00003	5d		 pop	 ebp
  00004	c3		 ret	 0
__JustMyCode_Default ENDP
_TEXT	ENDS
; Function compile flags: /Odtp /RTCsu /ZI
; File C:\Users\Bartek\Desktop\assembler\AKO_gr7_cw4_2024\AKO_gr7_cw_2024\program.c
;	COMDAT _main
_TEXT	SEGMENT
_main	PROC						; COMDAT

; 7    : {

  00000	55		 push	 ebp
  00001	8b ec		 mov	 ebp, esp
  00003	81 ec cc 00 00
	00		 sub	 esp, 204		; 000000ccH
  00009	53		 push	 ebx
  0000a	56		 push	 esi
  0000b	57		 push	 edi
  0000c	8d 7d f4	 lea	 edi, DWORD PTR [ebp-12]
  0000f	b9 03 00 00 00	 mov	 ecx, 3
  00014	b8 cc cc cc cc	 mov	 eax, -858993460		; ccccccccH
  00019	f3 ab		 rep stosd
  0001b	b9 00 00 00 00	 mov	 ecx, OFFSET __4935C687_program@c
  00020	e8 00 00 00 00	 call	 @__CheckForDebuggerJustMyCode@4
  00025	90		 npad	 1

; 8    : 	int a;
; 9    : 	wyswietl_EAX(12345);

  00026	68 39 30 00 00	 push	 12345			; 00003039H
  0002b	e8 00 00 00 00	 call	 _wyswietl_EAX
  00030	83 c4 04	 add	 esp, 4

; 10   : }

  00033	33 c0		 xor	 eax, eax
  00035	5f		 pop	 edi
  00036	5e		 pop	 esi
  00037	5b		 pop	 ebx
  00038	81 c4 cc 00 00
	00		 add	 esp, 204		; 000000ccH
  0003e	3b ec		 cmp	 ebp, esp
  00040	e8 00 00 00 00	 call	 __RTC_CheckEsp
  00045	8b e5		 mov	 esp, ebp
  00047	5d		 pop	 ebp
  00048	c3		 ret	 0
_main	ENDP
_TEXT	ENDS
END
